target datalayout = "e-m:e-p270:32:32-p271:32:32-p272:64:64-i64:64-i128:128-f80:128-n8:16:32:64-S128"
target triple = "x86_64-pc-linux-gnu"

%struct.Bbr_ImageNode_t_ = type { ptr, ptr, ptr, ptr, ptr, ptr }

; Function Attrs: nounwind uwtable
define internal void @Bbr_bddImageTreeDelete_rec(ptr noundef %0) #0 {
  %2 = alloca ptr, align 8
  store ptr %0, ptr %2, align 8, !tbaa !35
  %3 = load ptr, ptr %2, align 8, !tbaa !35
  %4 = getelementptr inbounds nuw %struct.Bbr_ImageNode_t_, ptr %3, i32 0, i32 3
  %5 = load ptr, ptr %4, align 8, !tbaa !90
  %6 = icmp ne ptr %5, null
  br i1 %6, label %7, label %11

7:                                                ; preds = %1
  %8 = load ptr, ptr %2, align 8, !tbaa !35
  %9 = getelementptr inbounds nuw %struct.Bbr_ImageNode_t_, ptr %8, i32 0, i32 3
  %10 = load ptr, ptr %9, align 8, !tbaa !90
  call void @Bbr_bddImageTreeDelete_rec(ptr noundef %10)
  br label %11

11:                                               ; preds = %7, %1
  %12 = load ptr, ptr %2, align 8, !tbaa !35
  %13 = getelementptr inbounds nuw %struct.Bbr_ImageNode_t_, ptr %12, i32 0, i32 4
  %14 = load ptr, ptr %13, align 8, !tbaa !91
  %15 = icmp ne ptr %14, null
  br i1 %15, label %16, label %20

16:                                               ; preds = %11
  %17 = load ptr, ptr %2, align 8, !tbaa !35
  %18 = getelementptr inbounds nuw %struct.Bbr_ImageNode_t_, ptr %17, i32 0, i32 4
  %19 = load ptr, ptr %18, align 8, !tbaa !91
  call void @Bbr_bddImageTreeDelete_rec(ptr noundef %19)
  br label %20

20:                                               ; preds = %16, %11
  %21 = load ptr, ptr %2, align 8, !tbaa !35
  %22 = getelementptr inbounds nuw %struct.Bbr_ImageNode_t_, ptr %21, i32 0, i32 1
  %23 = load ptr, ptr %22, align 8, !tbaa !81
  %24 = icmp ne ptr %23, null
  br i1 %24, label %25, label %32

25:                                               ; preds = %20
  %26 = load ptr, ptr %2, align 8, !tbaa !35
  %27 = getelementptr inbounds nuw %struct.Bbr_ImageNode_t_, ptr %26, i32 0, i32 0
  %28 = load ptr, ptr %27, align 8, !tbaa !77
  %29 = load ptr, ptr %2, align 8, !tbaa !35
  %30 = getelementptr inbounds nuw %struct.Bbr_ImageNode_t_, ptr %29, i32 0, i32 1
  %31 = load ptr, ptr %30, align 8, !tbaa !81
  call void @Cudd_RecursiveDeref(ptr noundef %28, ptr noundef %31)
  br label %32

32:                                               ; preds = %25, %20
  %33 = load ptr, ptr %2, align 8, !tbaa !35
  %34 = getelementptr inbounds nuw %struct.Bbr_ImageNode_t_, ptr %33, i32 0, i32 2
  %35 = load ptr, ptr %34, align 8, !tbaa !83
  %36 = icmp ne ptr %35, null
  br i1 %36, label %37, label %44

37:                                               ; preds = %32
  %38 = load ptr, ptr %2, align 8, !tbaa !35
  %39 = getelementptr inbounds nuw %struct.Bbr_ImageNode_t_, ptr %38, i32 0, i32 0
  %40 = load ptr, ptr %39, align 8, !tbaa !77
  %41 = load ptr, ptr %2, align 8, !tbaa !35
  %42 = getelementptr inbounds nuw %struct.Bbr_ImageNode_t_, ptr %41, i32 0, i32 2
  %43 = load ptr, ptr %42, align 8, !tbaa !83
  call void @Cudd_RecursiveDeref(ptr noundef %40, ptr noundef %43)
  br label %44

44:                                               ; preds = %37, %32
  %45 = load ptr, ptr %2, align 8, !tbaa !35
  %46 = icmp ne ptr %45, null
  br i1 %46, label %47, label %49

47:                                               ; preds = %44
  %48 = load ptr, ptr %2, align 8, !tbaa !35
  call void @free(ptr noundef %48) #6
  store ptr null, ptr %2, align 8, !tbaa !35
  br label %50

49:                                               ; preds = %44
  br label %50

50:                                               ; preds = %49, %47
  ret void
}